; Function Attrs: mustprogress nofree norecurse nosync nounwind willreturn memory(argmem: readwrite) uwtable
define hidden void @SDL_UpdateSurfaceLockFlag(ptr noundef captures(address_is_null) %0) local_unnamed_addr #1 {
  %.not.i.i = icmp eq ptr %0, null
  br i1 %.not.i.i, label %SDL_SurfaceHasRLE_REAL.exit.thread, label %SDL_SurfaceValid.exit.i

SDL_SurfaceValid.exit.i:                          ; preds = %1
  %2 = getelementptr inbounds nuw i8, ptr %0, i64 40
  %3 = load ptr, ptr %2, align 8
  %4 = icmp eq ptr %3, @SDL_surface_magic
  br i1 %4, label %SDL_SurfaceHasRLE_REAL.exit, label %SDL_SurfaceHasRLE_REAL.exit.thread

SDL_SurfaceHasRLE_REAL.exit:                      ; preds = %SDL_SurfaceValid.exit.i
  %5 = getelementptr inbounds nuw i8, ptr %0, i64 256
  %6 = load i32, ptr %5, align 8
  %7 = and i32 %6, 4096
  %.not.i.not = icmp eq i32 %7, 0
  br i1 %.not.i.not, label %SDL_SurfaceHasRLE_REAL.exit.thread, label %8

8:                                                ; preds = %SDL_SurfaceHasRLE_REAL.exit
  %9 = load i32, ptr %0, align 8
  %10 = or i32 %9, 2
  br label %13

SDL_SurfaceHasRLE_REAL.exit.thread:               ; preds = %1, %SDL_SurfaceValid.exit.i, %SDL_SurfaceHasRLE_REAL.exit
  %11 = load i32, ptr %0, align 8
  %12 = and i32 %11, -3
  br label %13

13:                                               ; preds = %SDL_SurfaceHasRLE_REAL.exit.thread, %8
  %storemerge = phi i32 [ %12, %SDL_SurfaceHasRLE_REAL.exit.thread ], [ %10, %8 ]
  store i32 %storemerge, ptr %0, align 8
  ret void
}